CCS PCM C Compiler, Version 5.015, 5967               08-Jun-17 08:45

               Filename:   D:\PIC_CCS\74HC595\74HC595.lst

               ROM used:   96 words (1%)
                           Largest free fragment is 2048
               RAM used:   6 (2%) at main() level
                           9 (2%) worst case
               Stack used: 1 locations
               Stack size: 8

*
0000:  MOVLW  00
0001:  MOVWF  0A
0002:  GOTO   03D
0003:  NOP
.................... #include <74HC595.h> 
.................... #include <16F877A.h> 
.................... //////////// Standard Header file for the PIC16F877A device //////////////// 
.................... /////////////////////////////////////////////////////////////////////////// 
.................... ////        (C) Copyright 1996, 2013 Custom Computer Services          //// 
.................... //// This source code may only be used by licensed users of the CCS C  //// 
.................... //// compiler.  This source code may only be distributed to other      //// 
.................... //// licensed users of the CCS C compiler.  No other use, reproduction //// 
.................... //// or distribution is permitted without written permission.          //// 
.................... //// Derivative programs created using this software in object code    //// 
.................... //// form are not restricted in any way.                               //// 
.................... /////////////////////////////////////////////////////////////////////////// 
.................... #device PIC16F877A 
....................  
.................... #list 
....................  
.................... #device ADC=16 
....................  
.................... #FUSES NOWDT                    //No Watch Dog Timer 
.................... #FUSES NOBROWNOUT               //No brownout reset 
.................... #FUSES NOLVP                    //No low voltage prgming, B3(PIC16) or B5(PIC18) used for I/O 
....................  
.................... #use delay(crystal=20000000) 
*
0029:  MOVLW  22
002A:  MOVWF  04
002B:  BCF    03.7
002C:  MOVF   00,W
002D:  BTFSC  03.2
002E:  GOTO   03C
002F:  MOVLW  06
0030:  MOVWF  78
0031:  CLRF   77
0032:  DECFSZ 77,F
0033:  GOTO   032
0034:  DECFSZ 78,F
0035:  GOTO   031
0036:  MOVLW  7B
0037:  MOVWF  77
0038:  DECFSZ 77,F
0039:  GOTO   038
003A:  DECFSZ 00,F
003B:  GOTO   02F
003C:  RETURN
.................... #use fast_io(B) 
....................  
.................... #define SHCP  PIN_B0 
.................... #define STCP  PIN_B1 
.................... #define DS  PIN_B2 
.................... #define HC595_tris set_tris_b 
....................  
.................... void HC595_Init(); 
.................... void Output595(char valua); 
....................  
....................  
....................  
.................... void main() 
003D:  MOVF   03,W
003E:  ANDLW  1F
003F:  MOVWF  03
0040:  BSF    03.5
0041:  BSF    1F.0
0042:  BSF    1F.1
0043:  BSF    1F.2
0044:  BCF    1F.3
0045:  MOVLW  07
0046:  MOVWF  1C
0047:  BCF    03.7
.................... { 
....................    HC595_Init(); 
0048:  BCF    03.5
0049:  GOTO   004
....................    while(TRUE) 
....................    { 
....................       Output595(0xf0); 
004A:  MOVLW  F0
004B:  MOVWF  21
004C:  CALL   00E
....................       delay_ms(1000); 
004D:  MOVLW  04
004E:  MOVWF  21
004F:  MOVLW  FA
0050:  MOVWF  22
0051:  CALL   029
0052:  DECFSZ 21,F
0053:  GOTO   04F
....................       Output595(0x0f); 
0054:  MOVLW  0F
0055:  MOVWF  21
0056:  CALL   00E
....................       delay_ms(1000); 
0057:  MOVLW  04
0058:  MOVWF  21
0059:  MOVLW  FA
005A:  MOVWF  22
005B:  CALL   029
005C:  DECFSZ 21,F
005D:  GOTO   059
005E:  GOTO   04A
....................    } 
....................  
.................... } 
....................  
005F:  SLEEP
.................... void HC595_Init(){ 
....................    HC595_tris(0x00); 
*
0004:  MOVLW  00
0005:  BSF    03.5
0006:  MOVWF  06
....................    output_high(SHCP); 
0007:  BCF    03.5
0008:  BSF    06.0
....................    output_high(STCP); 
0009:  BSF    06.1
....................    output_high(DS);   
000A:  BSF    06.2
000B:  BCF    0A.3
000C:  BCF    0A.4
000D:  GOTO   04A (RETURN)
.................... } 
....................  
.................... void Output595(unsigned char valua){ 
....................    int i; 
....................    unsigned char ch; 
....................    output_low(STCP); 
000E:  BCF    06.1
....................    for(i=0;i<8;i++){ 
000F:  CLRF   22
0010:  MOVF   22,W
0011:  SUBLW  07
0012:  BTFSS  03.0
0013:  GOTO   027
....................       output_low(SHCP); 
0014:  BCF    06.0
....................       ch = valua; 
0015:  MOVF   21,W
0016:  MOVWF  23
....................       if((ch&0x80)==0x80) output_high(DS); 
0017:  MOVF   23,W
0018:  ANDLW  80
0019:  SUBLW  80
001A:  BTFSS  03.2
001B:  GOTO   01E
001C:  BSF    06.2
001D:  GOTO   01F
....................       else output_low(DS); 
001E:  BCF    06.2
....................       valua <<= 1; 
001F:  BCF    03.0
0020:  RLF    21,F
....................       delay_us(1); 
0021:  GOTO   022
0022:  GOTO   023
0023:  NOP
....................       output_high(SHCP); 
0024:  BSF    06.0
0025:  INCF   22,F
0026:  GOTO   010
....................    } 
....................    output_high(STCP); 
0027:  BSF    06.1
0028:  RETURN
.................... } 

Configuration Fuses:
   Word  1: 3F32   HS NOWDT PUT NOBROWNOUT NOLVP NOCPD NOWRT NODEBUG NOPROTECT
